; Function Attrs: mustprogress uwtable
define void @_ZN13BalanceRegionC2Ev(ptr nocapture noundef nonnull writeonly align 8 dereferenceable(8) %0) unnamed_addr #0 align 2 personality ptr @__gxx_personality_v0 {
  store ptr null, ptr %0, align 8
  %2 = invoke noalias noundef nonnull dereferenceable(24) ptr @_Znwm(i64 noundef 24) #10
          to label %_ZNSt10unique_ptrIN13BalanceRegion4ImplESt14default_deleteIS1_EED2Ev.exit unwind label %_ZNSt10unique_ptrIN13BalanceRegion4ImplESt14default_deleteIS1_EED2Ev.exit4

_ZNSt10unique_ptrIN13BalanceRegion4ImplESt14default_deleteIS1_EED2Ev.exit: ; preds = %1
  store i8 0, ptr %2, align 8, !noalias !5
  %3 = getelementptr inbounds i8, ptr %2, i64 1
  store i8 0, ptr %3, align 1, !noalias !5
  %4 = getelementptr inbounds i8, ptr %2, i64 2
  store i8 0, ptr %4, align 2, !noalias !5
  %5 = getelementptr inbounds i8, ptr %2, i64 8
  tail call void @llvm.memset.p0.i64(ptr noundef nonnull align 8 dereferenceable(16) %5, i8 0, i64 16, i1 false), !noalias !5
  store ptr %2, ptr %0, align 8
  ret void

_ZNSt10unique_ptrIN13BalanceRegion4ImplESt14default_deleteIS1_EED2Ev.exit4: ; preds = %1
  %6 = landingpad { ptr, i32 }
          cleanup
  store ptr null, ptr %0, align 8
  resume { ptr, i32 } %6
}